target datalayout = "e-m:e-p270:32:32-p271:32:32-p272:64:64-i64:64-i128:128-f80:128-n8:16:32:64-S128"
target triple = "x86_64-pc-linux-gnu"

%struct.rb_memory_view_t = type { i64, ptr, i64, i8, ptr, i64, %struct.anon, i64, ptr, ptr, ptr, ptr, ptr }
%struct.anon = type { ptr, i64 }

@sym_format = internal global i64 0, align 8
@sym_obj = internal global i64 0, align 8
@sym_byte_size = internal global i64 0, align 8
@sym_readonly = internal global i64 0, align 8
@sym_item_size = internal global i64 0, align 8
@sym_ndim = internal global i64 0, align 8
@sym_shape = internal global i64 0, align 8
@sym_strides = internal global i64 0, align 8
@sym_sub_offsets = internal global i64 0, align 8

; Function Attrs: inlinehint nounwind sspstrong willreturn memory(none) uwtable
define internal i64 @RB_INT2FIX(i64 noundef %0) #4 {
  %2 = alloca i64, align 8
  %3 = alloca i64, align 8
  %4 = alloca i64, align 8
  %5 = alloca i64, align 8
  %6 = alloca i64, align 8
  %7 = alloca i64, align 8
  store i64 %0, ptr %2, align 8, !tbaa !6
  call void @llvm.lifetime.start.p0(i64 8, ptr %3) #20
  %8 = load i64, ptr %2, align 8, !tbaa !6
  store i64 %8, ptr %3, align 8, !tbaa !6
  call void @llvm.lifetime.start.p0(i64 8, ptr %4) #20
  %9 = load i64, ptr %3, align 8, !tbaa !6
  %10 = shl i64 %9, 1
  %11 = add i64 %10, 1
  store i64 %11, ptr %4, align 8, !tbaa !6
  call void @llvm.lifetime.start.p0(i64 8, ptr %5) #20
  %12 = load i64, ptr %4, align 8, !tbaa !6
  store i64 %12, ptr %5, align 8, !tbaa !6
  call void @llvm.lifetime.start.p0(i64 8, ptr %6) #20
  %13 = load i64, ptr %5, align 8, !tbaa !6
  store i64 %13, ptr %6, align 8, !tbaa !6
  call void @llvm.lifetime.start.p0(i64 8, ptr %7) #20
  %14 = load i64, ptr %6, align 8, !tbaa !6
  store i64 %14, ptr %7, align 8, !tbaa !6
  %15 = load i64, ptr %7, align 8, !tbaa !6
  call void @llvm.lifetime.end.p0(i64 8, ptr %7) #20
  call void @llvm.lifetime.end.p0(i64 8, ptr %6) #20
  call void @llvm.lifetime.end.p0(i64 8, ptr %5) #20
  call void @llvm.lifetime.end.p0(i64 8, ptr %4) #20
  call void @llvm.lifetime.end.p0(i64 8, ptr %3) #20
  ret i64 %15
}

; Function Attrs: inlinehint nounwind sspstrong uwtable
define internal i64 @rb_ll2num_inline(i64 noundef %0) #5 {
  %2 = alloca i64, align 8
  %3 = alloca i64, align 8
  store i64 %0, ptr %3, align 8, !tbaa !44
  %4 = load i64, ptr %3, align 8, !tbaa !44
  %5 = icmp slt i64 %4, 4611686018427387904
  br i1 %5, label %6, label %12

6:                                                ; preds = %1
  %7 = load i64, ptr %3, align 8, !tbaa !44
  %8 = icmp sge i64 %7, -4611686018427387904
  br i1 %8, label %9, label %12

9:                                                ; preds = %6
  %10 = load i64, ptr %3, align 8, !tbaa !44
  %11 = call i64 @RB_INT2FIX(i64 noundef %10) #22
  store i64 %11, ptr %2, align 8
  br label %15

12:                                               ; preds = %6, %1
  %13 = load i64, ptr %3, align 8, !tbaa !44
  %14 = call i64 @rb_ll2inum(i64 noundef %13)
  store i64 %14, ptr %2, align 8
  br label %15

15:                                               ; preds = %12, %9
  %16 = load i64, ptr %2, align 8
  ret i64 %16
}

; Function Attrs: nounwind sspstrong uwtable
define internal i64 @memory_view_get_memory_view_info(i64 noundef %0, i64 noundef %1) #0 {
  %3 = alloca i64, align 8
  %4 = alloca i64, align 8
  %5 = alloca i64, align 8
  %6 = alloca %struct.rb_memory_view_t, align 8
  %7 = alloca i32, align 4
  %8 = alloca i64, align 8
  %9 = alloca i64, align 8
  %10 = alloca i64, align 8
  %11 = alloca i64, align 8
  store i64 %0, ptr %4, align 8, !tbaa !6
  store i64 %1, ptr %5, align 8, !tbaa !6
  call void @llvm.lifetime.start.p0(i64 112, ptr %6) #20
  %12 = load i64, ptr %5, align 8, !tbaa !6
  %13 = call zeroext i1 @rb_memory_view_get(i64 noundef %12, ptr noundef %6, i32 noundef 0)
  br i1 %13, label %15, label %14

14:                                               ; preds = %2
  store i64 4, ptr %3, align 8
  store i32 1, ptr %7, align 4
  br label %110

15:                                               ; preds = %2
  call void @llvm.lifetime.start.p0(i64 8, ptr %8) #20
  %16 = call i64 @rb_hash_new()
  store i64 %16, ptr %8, align 8, !tbaa !6
  %17 = load i64, ptr %8, align 8, !tbaa !6
  %18 = load i64, ptr @sym_obj, align 8, !tbaa !6
  %19 = getelementptr inbounds nuw %struct.rb_memory_view_t, ptr %6, i32 0, i32 0
  %20 = load i64, ptr %19, align 8, !tbaa !27
  %21 = call i64 @rb_hash_aset(i64 noundef %17, i64 noundef %18, i64 noundef %20)
  %22 = load i64, ptr %8, align 8, !tbaa !6
  %23 = load i64, ptr @sym_byte_size, align 8, !tbaa !6
  %24 = getelementptr inbounds nuw %struct.rb_memory_view_t, ptr %6, i32 0, i32 2
  %25 = load i64, ptr %24, align 8, !tbaa !32
  %26 = call i64 @rb_ll2num_inline(i64 noundef %25)
  %27 = call i64 @rb_hash_aset(i64 noundef %22, i64 noundef %23, i64 noundef %26)
  %28 = load i64, ptr %8, align 8, !tbaa !6
  %29 = load i64, ptr @sym_readonly, align 8, !tbaa !6
  %30 = getelementptr inbounds nuw %struct.rb_memory_view_t, ptr %6, i32 0, i32 3
  %31 = load i8, ptr %30, align 8, !tbaa !33, !range !19, !noundef !20
  %32 = trunc i8 %31 to i1
  %33 = select i1 %32, i64 20, i64 0
  %34 = call i64 @rb_hash_aset(i64 noundef %28, i64 noundef %29, i64 noundef %33)
  %35 = load i64, ptr %8, align 8, !tbaa !6
  %36 = load i64, ptr @sym_format, align 8, !tbaa !6
  %37 = getelementptr inbounds nuw %struct.rb_memory_view_t, ptr %6, i32 0, i32 4
  %38 = load ptr, ptr %37, align 8, !tbaa !34
  %39 = icmp ne ptr %38, null
  br i1 %39, label %40, label %44

40:                                               ; preds = %15
  %41 = getelementptr inbounds nuw %struct.rb_memory_view_t, ptr %6, i32 0, i32 4
  %42 = load ptr, ptr %41, align 8, !tbaa !34
  %43 = call i64 @rb_str_new_cstr(ptr noundef %42)
  br label %45

44:                                               ; preds = %15
  br label %45

45:                                               ; preds = %44, %40
  %46 = phi i64 [ %43, %40 ], [ 4, %44 ]
  %47 = call i64 @rb_hash_aset(i64 noundef %35, i64 noundef %36, i64 noundef %46)
  %48 = load i64, ptr %8, align 8, !tbaa !6
  %49 = load i64, ptr @sym_item_size, align 8, !tbaa !6
  %50 = getelementptr inbounds nuw %struct.rb_memory_view_t, ptr %6, i32 0, i32 5
  %51 = load i64, ptr %50, align 8, !tbaa !35
  %52 = call i64 @rb_ll2num_inline(i64 noundef %51)
  %53 = call i64 @rb_hash_aset(i64 noundef %48, i64 noundef %49, i64 noundef %52)
  %54 = load i64, ptr %8, align 8, !tbaa !6
  %55 = load i64, ptr @sym_ndim, align 8, !tbaa !6
  %56 = getelementptr inbounds nuw %struct.rb_memory_view_t, ptr %6, i32 0, i32 7
  %57 = load i64, ptr %56, align 8, !tbaa !36
  %58 = call i64 @rb_ll2num_inline(i64 noundef %57)
  %59 = call i64 @rb_hash_aset(i64 noundef %54, i64 noundef %55, i64 noundef %58)
  %60 = getelementptr inbounds nuw %struct.rb_memory_view_t, ptr %6, i32 0, i32 8
  %61 = load ptr, ptr %60, align 8, !tbaa !37
  %62 = icmp ne ptr %61, null
  br i1 %62, label %63, label %71

63:                                               ; preds = %45
  call void @llvm.lifetime.start.p0(i64 8, ptr %9) #20
  %64 = getelementptr inbounds nuw %struct.rb_memory_view_t, ptr %6, i32 0, i32 7
  %65 = load i64, ptr %64, align 8, !tbaa !36
  %66 = call i64 @rb_ary_new_capa(i64 noundef %65)
  store i64 %66, ptr %9, align 8, !tbaa !6
  %67 = load i64, ptr %8, align 8, !tbaa !6
  %68 = load i64, ptr @sym_shape, align 8, !tbaa !6
  %69 = load i64, ptr %9, align 8, !tbaa !6
  %70 = call i64 @rb_hash_aset(i64 noundef %67, i64 noundef %68, i64 noundef %69)
  call void @llvm.lifetime.end.p0(i64 8, ptr %9) #20
  br label %75

71:                                               ; preds = %45
  %72 = load i64, ptr %8, align 8, !tbaa !6
  %73 = load i64, ptr @sym_shape, align 8, !tbaa !6
  %74 = call i64 @rb_hash_aset(i64 noundef %72, i64 noundef %73, i64 noundef 4)
  br label %75

75:                                               ; preds = %71, %63
  %76 = getelementptr inbounds nuw %struct.rb_memory_view_t, ptr %6, i32 0, i32 9
  %77 = load ptr, ptr %76, align 8, !tbaa !38
  %78 = icmp ne ptr %77, null
  br i1 %78, label %79, label %87

79:                                               ; preds = %75
  call void @llvm.lifetime.start.p0(i64 8, ptr %10) #20
  %80 = getelementptr inbounds nuw %struct.rb_memory_view_t, ptr %6, i32 0, i32 7
  %81 = load i64, ptr %80, align 8, !tbaa !36
  %82 = call i64 @rb_ary_new_capa(i64 noundef %81)
  store i64 %82, ptr %10, align 8, !tbaa !6
  %83 = load i64, ptr %8, align 8, !tbaa !6
  %84 = load i64, ptr @sym_strides, align 8, !tbaa !6
  %85 = load i64, ptr %10, align 8, !tbaa !6
  %86 = call i64 @rb_hash_aset(i64 noundef %83, i64 noundef %84, i64 noundef %85)
  call void @llvm.lifetime.end.p0(i64 8, ptr %10) #20
  br label %91

87:                                               ; preds = %75
  %88 = load i64, ptr %8, align 8, !tbaa !6
  %89 = load i64, ptr @sym_strides, align 8, !tbaa !6
  %90 = call i64 @rb_hash_aset(i64 noundef %88, i64 noundef %89, i64 noundef 4)
  br label %91

91:                                               ; preds = %87, %79
  %92 = getelementptr inbounds nuw %struct.rb_memory_view_t, ptr %6, i32 0, i32 10
  %93 = load ptr, ptr %92, align 8, !tbaa !39
  %94 = icmp ne ptr %93, null
  br i1 %94, label %95, label %103

95:                                               ; preds = %91
  call void @llvm.lifetime.start.p0(i64 8, ptr %11) #20
  %96 = getelementptr inbounds nuw %struct.rb_memory_view_t, ptr %6, i32 0, i32 7
  %97 = load i64, ptr %96, align 8, !tbaa !36
  %98 = call i64 @rb_ary_new_capa(i64 noundef %97)
  store i64 %98, ptr %11, align 8, !tbaa !6
  %99 = load i64, ptr %8, align 8, !tbaa !6
  %100 = load i64, ptr @sym_sub_offsets, align 8, !tbaa !6
  %101 = load i64, ptr %11, align 8, !tbaa !6
  %102 = call i64 @rb_hash_aset(i64 noundef %99, i64 noundef %100, i64 noundef %101)
  call void @llvm.lifetime.end.p0(i64 8, ptr %11) #20
  br label %107

103:                                              ; preds = %91
  %104 = load i64, ptr %8, align 8, !tbaa !6
  %105 = load i64, ptr @sym_sub_offsets, align 8, !tbaa !6
  %106 = call i64 @rb_hash_aset(i64 noundef %104, i64 noundef %105, i64 noundef 4)
  br label %107

107:                                              ; preds = %103, %95
  %108 = call zeroext i1 @rb_memory_view_release(ptr noundef %6)
  %109 = load i64, ptr %8, align 8, !tbaa !6
  store i64 %109, ptr %3, align 8
  store i32 1, ptr %7, align 4
  call void @llvm.lifetime.end.p0(i64 8, ptr %8) #20
  br label %110

110:                                              ; preds = %107, %14
  call void @llvm.lifetime.end.p0(i64 112, ptr %6) #20
  %111 = load i64, ptr %3, align 8
  ret i64 %111
}