; Function Attrs: nounwind sspstrong uwtable
define internal noundef i64 @memory_view_get_memory_view_info(i64 %0, i64 noundef %1) #0 {
  %3 = alloca %struct.rb_memory_view_t, align 8
  call void @llvm.lifetime.start.p0(i64 112, ptr nonnull %3) #9
  %4 = call zeroext i1 @rb_memory_view_get(i64 noundef %1, ptr noundef nonnull %3, i32 noundef 0) #9
  br i1 %4, label %5, label %79

5:                                                ; preds = %2
  %6 = call i64 @rb_hash_new() #9
  %7 = load i64, ptr @sym_obj, align 8, !tbaa !6
  %8 = load i64, ptr %3, align 8, !tbaa !25
  %9 = call i64 @rb_hash_aset(i64 noundef %6, i64 noundef %7, i64 noundef %8) #9
  %10 = load i64, ptr @sym_byte_size, align 8, !tbaa !6
  %11 = getelementptr inbounds nuw i8, ptr %3, i64 16
  %12 = load i64, ptr %11, align 8, !tbaa !30
  %13 = add i64 %12, 4611686018427387904
  %or.cond.i = icmp sgt i64 %13, -1
  br i1 %or.cond.i, label %14, label %17

14:                                               ; preds = %5
  %15 = shl nsw i64 %12, 1
  %16 = or disjoint i64 %15, 1
  br label %rb_ll2num_inline.exit

17:                                               ; preds = %5
  %18 = call i64 @rb_ll2inum(i64 noundef %12) #9
  br label %rb_ll2num_inline.exit

rb_ll2num_inline.exit:                            ; preds = %14, %17
  %.0.i = phi i64 [ %16, %14 ], [ %18, %17 ]
  %19 = call i64 @rb_hash_aset(i64 noundef %6, i64 noundef %10, i64 noundef %.0.i) #9
  %20 = load i64, ptr @sym_readonly, align 8, !tbaa !6
  %21 = getelementptr inbounds nuw i8, ptr %3, i64 24
  %22 = load i8, ptr %21, align 8, !tbaa !31, !range !17, !noundef !18
  %23 = trunc nuw i8 %22 to i1
  %24 = select i1 %23, i64 20, i64 0
  %25 = call i64 @rb_hash_aset(i64 noundef %6, i64 noundef %20, i64 noundef %24) #9
  %26 = load i64, ptr @sym_format, align 8, !tbaa !6
  %27 = getelementptr inbounds nuw i8, ptr %3, i64 32
  %28 = load ptr, ptr %27, align 8, !tbaa !32
  %.not = icmp eq ptr %28, null
  br i1 %.not, label %31, label %29

29:                                               ; preds = %rb_ll2num_inline.exit
  %30 = call i64 @rb_str_new_cstr(ptr noundef nonnull %28) #9
  br label %31

31:                                               ; preds = %rb_ll2num_inline.exit, %29
  %32 = phi i64 [ %30, %29 ], [ 4, %rb_ll2num_inline.exit ]
  %33 = call i64 @rb_hash_aset(i64 noundef %6, i64 noundef %26, i64 noundef %32) #9
  %34 = load i64, ptr @sym_item_size, align 8, !tbaa !6
  %35 = getelementptr inbounds nuw i8, ptr %3, i64 40
  %36 = load i64, ptr %35, align 8, !tbaa !33
  %37 = add i64 %36, 4611686018427387904
  %or.cond.i22 = icmp sgt i64 %37, -1
  br i1 %or.cond.i22, label %38, label %41

38:                                               ; preds = %31
  %39 = shl nsw i64 %36, 1
  %40 = or disjoint i64 %39, 1
  br label %rb_ll2num_inline.exit24

41:                                               ; preds = %31
  %42 = call i64 @rb_ll2inum(i64 noundef %36) #9
  br label %rb_ll2num_inline.exit24

rb_ll2num_inline.exit24:                          ; preds = %38, %41
  %.0.i23 = phi i64 [ %40, %38 ], [ %42, %41 ]
  %43 = call i64 @rb_hash_aset(i64 noundef %6, i64 noundef %34, i64 noundef %.0.i23) #9
  %44 = load i64, ptr @sym_ndim, align 8, !tbaa !6
  %45 = getelementptr inbounds nuw i8, ptr %3, i64 64
  %46 = load i64, ptr %45, align 8, !tbaa !34
  %47 = add i64 %46, 4611686018427387904
  %or.cond.i25 = icmp sgt i64 %47, -1
  br i1 %or.cond.i25, label %48, label %51

48:                                               ; preds = %rb_ll2num_inline.exit24
  %49 = shl nsw i64 %46, 1
  %50 = or disjoint i64 %49, 1
  br label %rb_ll2num_inline.exit27

51:                                               ; preds = %rb_ll2num_inline.exit24
  %52 = call i64 @rb_ll2inum(i64 noundef %46) #9
  br label %rb_ll2num_inline.exit27

rb_ll2num_inline.exit27:                          ; preds = %48, %51
  %.0.i26 = phi i64 [ %50, %48 ], [ %52, %51 ]
  %53 = call i64 @rb_hash_aset(i64 noundef %6, i64 noundef %44, i64 noundef %.0.i26) #9
  %54 = getelementptr inbounds nuw i8, ptr %3, i64 72
  %55 = load ptr, ptr %54, align 8, !tbaa !35
  %.not19 = icmp eq ptr %55, null
  br i1 %.not19, label %59, label %56

56:                                               ; preds = %rb_ll2num_inline.exit27
  %57 = load i64, ptr %45, align 8, !tbaa !34
  %58 = call i64 @rb_ary_new_capa(i64 noundef %57) #9
  br label %59

59:                                               ; preds = %rb_ll2num_inline.exit27, %56
  %.sink28 = phi i64 [ %58, %56 ], [ 4, %rb_ll2num_inline.exit27 ]
  %60 = load i64, ptr @sym_shape, align 8, !tbaa !6
  %61 = call i64 @rb_hash_aset(i64 noundef %6, i64 noundef %60, i64 noundef %.sink28) #9
  %62 = getelementptr inbounds nuw i8, ptr %3, i64 80
  %63 = load ptr, ptr %62, align 8, !tbaa !36
  %.not20 = icmp eq ptr %63, null
  br i1 %.not20, label %67, label %64

64:                                               ; preds = %59
  %65 = load i64, ptr %45, align 8, !tbaa !34
  %66 = call i64 @rb_ary_new_capa(i64 noundef %65) #9
  br label %67

67:                                               ; preds = %59, %64
  %.sink29 = phi i64 [ %66, %64 ], [ 4, %59 ]
  %68 = load i64, ptr @sym_strides, align 8, !tbaa !6
  %69 = call i64 @rb_hash_aset(i64 noundef %6, i64 noundef %68, i64 noundef %.sink29) #9
  %70 = getelementptr inbounds nuw i8, ptr %3, i64 88
  %71 = load ptr, ptr %70, align 8, !tbaa !37
  %.not21 = icmp eq ptr %71, null
  br i1 %.not21, label %75, label %72

72:                                               ; preds = %67
  %73 = load i64, ptr %45, align 8, !tbaa !34
  %74 = call i64 @rb_ary_new_capa(i64 noundef %73) #9
  br label %75

75:                                               ; preds = %67, %72
  %.sink30 = phi i64 [ %74, %72 ], [ 4, %67 ]
  %76 = load i64, ptr @sym_sub_offsets, align 8, !tbaa !6
  %77 = call i64 @rb_hash_aset(i64 noundef %6, i64 noundef %76, i64 noundef %.sink30) #9
  %78 = call zeroext i1 @rb_memory_view_release(ptr noundef nonnull %3) #9
  br label %79

79:                                               ; preds = %2, %75
  %.0 = phi i64 [ %6, %75 ], [ 4, %2 ]
  call void @llvm.lifetime.end.p0(i64 112, ptr nonnull %3) #9
  ret i64 %.0
}